; Function Attrs: nounwind uwtable
define ptr @l_Lean_LocalContext_sortFVarsByContextOrder(ptr noundef %0, ptr noundef %1) local_unnamed_addr #2 {
lean_nat_eq.exit:
  %2 = getelementptr i8, ptr %1, i64 8
  %.val64 = load i64, ptr %2, align 8, !tbaa !12
  %3 = tail call ptr @l_Array_mapMUnsafe_map___at_Lean_LocalContext_sortFVarsByContextOrder___spec__1(ptr noundef %0, i64 noundef %.val64, i64 noundef 0, ptr noundef %1)
  %4 = getelementptr i8, ptr %3, i64 8
  %.val65 = load i64, ptr %4, align 8, !tbaa !12
  %5 = shl i64 %.val65, 1
  %.not = icmp eq i64 %5, 0
  br i1 %.not, label %lean_dec.exit, label %lean_nat_le.exit

lean_nat_le.exit:                                 ; preds = %lean_nat_eq.exit
  %6 = and i64 %.val65, 9223372036854775807
  %7 = icmp eq i64 %6, 0
  %8 = add i64 %5, -1
  %9 = inttoptr i64 %8 to ptr
  %.1.i = select i1 %7, ptr inttoptr (i64 1 to ptr), ptr %9
  %10 = or disjoint i64 %5, 1
  %11 = inttoptr i64 %10 to ptr
  %12 = tail call ptr @l_Array_qsort_sort___at_Lean_LocalContext_sortFVarsByContextOrder___spec__2(ptr noundef nonnull %11, ptr noundef nonnull %3, ptr noundef nonnull inttoptr (i64 1 to ptr), ptr noundef nonnull %.1.i, ptr nonnull poison, ptr nonnull poison)
  %13 = getelementptr i8, ptr %12, i64 8
  %.val62 = load i64, ptr %13, align 8, !tbaa !12
  %14 = tail call ptr @l_Array_mapMUnsafe_map___at_Lean_LocalContext_sortFVarsByContextOrder___spec__3(i64 noundef %.val62, i64 noundef 0, ptr noundef %12)
  br label %16

lean_dec.exit:                                    ; preds = %lean_nat_eq.exit
  %15 = tail call ptr @l_Array_mapMUnsafe_map___at_Lean_LocalContext_sortFVarsByContextOrder___spec__3(i64 noundef %.val65, i64 noundef 0, ptr noundef nonnull %3)
  br label %16

16:                                               ; preds = %lean_nat_le.exit, %lean_dec.exit
  %.1 = phi ptr [ %15, %lean_dec.exit ], [ %14, %lean_nat_le.exit ]
  ret ptr %.1
}